target datalayout = "e-m:e-p270:32:32-p271:32:32-p272:64:64-i64:64-i128:128-f80:128-n8:16:32:64-S128"
target triple = "x86_64-pc-linux-gnu"

%struct.SDL_Pen = type { i32, ptr, %struct.SDL_PenInfo, [7 x float], float, float, i32, ptr }
%struct.SDL_PenInfo = type { i32, float, i32, i32, i32 }

@pen_device_rwlock = internal global ptr null, align 8
@pen_device_count = internal global i32 0, align 4
@pen_devices = internal global ptr null, align 8

; Function Attrs: nounwind uwtable
define hidden i32 @SDL_FindPenByCallback(ptr noundef %0, ptr noundef %1) #0 {
  %3 = alloca ptr, align 8
  %4 = alloca ptr, align 8
  %5 = alloca i32, align 4
  %6 = alloca i32, align 4
  %7 = alloca i32, align 4
  store ptr %0, ptr %3, align 8
  store ptr %1, ptr %4, align 8
  call void @llvm.lifetime.start.p0(i64 4, ptr %5) #6
  store i32 0, ptr %5, align 4
  %8 = load ptr, ptr @pen_device_rwlock, align 8
  call void @SDL_LockRWLockForReading_REAL(ptr noundef %8)
  call void @llvm.lifetime.start.p0(i64 4, ptr %6) #6
  store i32 0, ptr %6, align 4
  br label %9

9:                                                ; preds = %32, %2
  %10 = load i32, ptr %6, align 4
  %11 = load i32, ptr @pen_device_count, align 4
  %12 = icmp slt i32 %10, %11
  br i1 %12, label %14, label %13

13:                                               ; preds = %9
  store i32 2, ptr %7, align 4
  br label %35

14:                                               ; preds = %9
  %15 = load ptr, ptr %3, align 8
  %16 = load ptr, ptr @pen_devices, align 8
  %17 = load i32, ptr %6, align 4
  %18 = sext i32 %17 to i64
  %19 = getelementptr inbounds %struct.SDL_Pen, ptr %16, i64 %18
  %20 = getelementptr inbounds nuw %struct.SDL_Pen, ptr %19, i32 0, i32 7
  %21 = load ptr, ptr %20, align 8
  %22 = load ptr, ptr %4, align 8
  %23 = call zeroext i1 %15(ptr noundef %21, ptr noundef %22)
  br i1 %23, label %24, label %31

24:                                               ; preds = %14
  %25 = load ptr, ptr @pen_devices, align 8
  %26 = load i32, ptr %6, align 4
  %27 = sext i32 %26 to i64
  %28 = getelementptr inbounds %struct.SDL_Pen, ptr %25, i64 %27
  %29 = getelementptr inbounds nuw %struct.SDL_Pen, ptr %28, i32 0, i32 0
  %30 = load i32, ptr %29, align 8
  store i32 %30, ptr %5, align 4
  store i32 2, ptr %7, align 4
  br label %35

31:                                               ; preds = %14
  br label %32

32:                                               ; preds = %31
  %33 = load i32, ptr %6, align 4
  %34 = add nsw i32 %33, 1
  store i32 %34, ptr %6, align 4
  br label %9, !llvm.loop !5

35:                                               ; preds = %24, %13
  call void @llvm.lifetime.end.p0(i64 4, ptr %6) #6
  br label %36

36:                                               ; preds = %35
  %37 = load ptr, ptr @pen_device_rwlock, align 8
  call void @SDL_UnlockRWLock_REAL(ptr noundef %37)
  %38 = load i32, ptr %5, align 4
  store i32 1, ptr %7, align 4
  call void @llvm.lifetime.end.p0(i64 4, ptr %5) #6
  ret i32 %38
}