; Function Attrs: nounwind uwtable
define hidden i32 @SDL_FindPenByCallback(ptr noundef readonly captures(none) %0, ptr noundef %1) local_unnamed_addr #0 {
  %3 = load ptr, ptr @pen_device_rwlock, align 8
  tail call void @SDL_LockRWLockForReading_REAL(ptr noundef %3) #8
  %4 = load i32, ptr @pen_device_count, align 4
  %5 = icmp sgt i32 %4, 0
  br i1 %5, label %.lr.ph, label %.loopexit

6:                                                ; preds = %.lr.ph
  %indvars.iv.next = add nuw nsw i64 %indvars.iv, 1
  %7 = load i32, ptr @pen_device_count, align 4
  %8 = sext i32 %7 to i64
  %9 = icmp slt i64 %indvars.iv.next, %8
  br i1 %9, label %.lr.ph, label %.loopexit, !llvm.loop !5

.lr.ph:                                           ; preds = %2, %6
  %indvars.iv = phi i64 [ %indvars.iv.next, %6 ], [ 0, %2 ]
  %10 = load ptr, ptr @pen_devices, align 8
  %11 = getelementptr inbounds nuw %struct.SDL_Pen, ptr %10, i64 %indvars.iv, i32 7
  %12 = load ptr, ptr %11, align 8
  %13 = tail call zeroext i1 %0(ptr noundef %12, ptr noundef %1) #8
  br i1 %13, label %14, label %6

14:                                               ; preds = %.lr.ph
  %15 = load ptr, ptr @pen_devices, align 8
  %16 = getelementptr inbounds nuw %struct.SDL_Pen, ptr %15, i64 %indvars.iv
  %17 = load i32, ptr %16, align 8
  br label %.loopexit

.loopexit:                                        ; preds = %6, %2, %14
  %.06 = phi i32 [ %17, %14 ], [ 0, %2 ], [ 0, %6 ]
  %18 = load ptr, ptr @pen_device_rwlock, align 8
  tail call void @SDL_UnlockRWLock_REAL(ptr noundef %18) #8
  ret i32 %.06
}